target datalayout = "e-m:e-p270:32:32-p271:32:32-p272:64:64-i64:64-i128:128-f80:128-n8:16:32:64-S128"
target triple = "x86_64-pc-linux-gnu"

%struct.SDL_GPUDevice = type { ptr, ptr, ptr, ptr, ptr, ptr, ptr, ptr, ptr, ptr, ptr, ptr, ptr, ptr, ptr, ptr, ptr, ptr, ptr, ptr, ptr, ptr, ptr, ptr, ptr, ptr, ptr, ptr, ptr, ptr, ptr, ptr, ptr, ptr, ptr, ptr, ptr, ptr, ptr, ptr, ptr, ptr, ptr, ptr, ptr, ptr, ptr, ptr, ptr, ptr, ptr, ptr, ptr, ptr, ptr, ptr, ptr, ptr, ptr, ptr, ptr, ptr, ptr, ptr, ptr, ptr, ptr, ptr, ptr, ptr, ptr, ptr, ptr, ptr, ptr, ptr, ptr, ptr, ptr, ptr, ptr, ptr, ptr, ptr, ptr, i32, i8 }
%struct.CommandBufferCommonHeader = type { ptr, %struct.RenderPass, i8, %struct.Pass, i8, %struct.Pass, i8, i8, i8 }
%struct.RenderPass = type { ptr, i8, [4 x ptr], i32, ptr }
%struct.Pass = type { ptr, i8 }

@.str.4 = private unnamed_addr constant [26 x i8] c"Parameter '%s' is invalid\00", align 1
@.str.8 = private unnamed_addr constant [103 x i8] c"generated/home/dtcxzyw/WorkSpace/Projects/compilers/llvm-opt-benchmark/bench/sdl/SDL/src/gpu/SDL_gpu.c\00", align 1
@.str.225 = private unnamed_addr constant [12 x i8] c"render_pass\00", align 1
@.str.230 = private unnamed_addr constant [8 x i8] c"scissor\00", align 1
@SDL_SetGPUScissor_REAL.sdl_assert_data = internal global { i8, [3 x i8], i32, ptr, ptr, i32, [4 x i8], ptr, ptr } { i8 0, [3 x i8] zeroinitializer, i32 0, ptr @.str.229, ptr null, i32 0, [4 x i8] zeroinitializer, ptr null, ptr null }, align 8
@__func__.SDL_SetGPUScissor_REAL = private unnamed_addr constant [23 x i8] c"SDL_SetGPUScissor_REAL\00", align 1

; Function Attrs: nounwind uwtable
define hidden void @SDL_SetGPUScissor_REAL(ptr noundef %0, ptr noundef %1) #0 {
  %3 = alloca ptr, align 8
  %4 = alloca ptr, align 8
  %5 = alloca i32, align 4
  %6 = alloca i32, align 4
  store ptr %0, ptr %3, align 8
  store ptr %1, ptr %4, align 8
  %7 = load ptr, ptr %3, align 8
  %8 = icmp eq ptr %7, null
  br i1 %8, label %9, label %11

9:                                                ; preds = %2
  %10 = call zeroext i1 (ptr, ...) @SDL_SetError_REAL(ptr noundef @.str.4, ptr noundef @.str.225)
  br label %60

11:                                               ; preds = %2
  %12 = load ptr, ptr %4, align 8
  %13 = icmp eq ptr %12, null
  br i1 %13, label %14, label %16

14:                                               ; preds = %11
  %15 = call zeroext i1 (ptr, ...) @SDL_SetError_REAL(ptr noundef @.str.4, ptr noundef @.str.230)
  br label %60

16:                                               ; preds = %11
  %17 = load ptr, ptr %3, align 8
  %18 = getelementptr inbounds nuw %struct.RenderPass, ptr %17, i32 0, i32 0
  %19 = load ptr, ptr %18, align 8
  %20 = getelementptr inbounds nuw %struct.CommandBufferCommonHeader, ptr %19, i32 0, i32 0
  %21 = load ptr, ptr %20, align 8
  %22 = getelementptr inbounds nuw %struct.SDL_GPUDevice, ptr %21, i32 0, i32 86
  %23 = load i8, ptr %22, align 4, !range !5, !noundef !6
  %24 = trunc i8 %23 to i1
  br i1 %24, label %25, label %48

25:                                               ; preds = %16
  %26 = load ptr, ptr %3, align 8
  %27 = getelementptr inbounds nuw %struct.RenderPass, ptr %26, i32 0, i32 1
  %28 = load i8, ptr %27, align 8, !range !5, !noundef !6
  %29 = trunc i8 %28 to i1
  br i1 %29, label %47, label %30

30:                                               ; preds = %25
  br label %31

31:                                               ; preds = %30
  br label %32

32:                                               ; preds = %31, %43
  call void @llvm.lifetime.start.p0(i64 4, ptr %5) #6
  %33 = call i32 @SDL_ReportAssertion_REAL(ptr noundef @SDL_SetGPUScissor_REAL.sdl_assert_data, ptr noundef @__func__.SDL_SetGPUScissor_REAL, ptr noundef @.str.8, i32 noundef 1754)
  store i32 %33, ptr %5, align 4
  %34 = load i32, ptr %5, align 4
  %35 = icmp eq i32 %34, 0
  br i1 %35, label %36, label %37

36:                                               ; preds = %32
  store i32 4, ptr %6, align 4
  br label %43

37:                                               ; preds = %32
  %38 = load i32, ptr %5, align 4
  %39 = icmp eq i32 %38, 1
  br i1 %39, label %40, label %41

40:                                               ; preds = %37
  call void @llvm.debugtrap()
  br label %41

41:                                               ; preds = %40, %37
  br label %42

42:                                               ; preds = %41
  store i32 5, ptr %6, align 4
  br label %43

43:                                               ; preds = %42, %36
  call void @llvm.lifetime.end.p0(i64 4, ptr %5) #6
  %44 = load i32, ptr %6, align 4
  switch i32 %44, label %61 [
    i32 4, label %32
    i32 5, label %45
  ]

45:                                               ; preds = %43
  br label %46

46:                                               ; preds = %45
  br label %60

47:                                               ; preds = %25
  br label %48

48:                                               ; preds = %47, %16
  %49 = load ptr, ptr %3, align 8
  %50 = getelementptr inbounds nuw %struct.RenderPass, ptr %49, i32 0, i32 0
  %51 = load ptr, ptr %50, align 8
  %52 = getelementptr inbounds nuw %struct.CommandBufferCommonHeader, ptr %51, i32 0, i32 0
  %53 = load ptr, ptr %52, align 8
  %54 = getelementptr inbounds nuw %struct.SDL_GPUDevice, ptr %53, i32 0, i32 24
  %55 = load ptr, ptr %54, align 8
  %56 = load ptr, ptr %3, align 8
  %57 = getelementptr inbounds nuw %struct.RenderPass, ptr %56, i32 0, i32 0
  %58 = load ptr, ptr %57, align 8
  %59 = load ptr, ptr %4, align 8
  call void %55(ptr noundef %58, ptr noundef %59)
  br label %60

60:                                               ; preds = %48, %46, %14, %9
  ret void

61:                                               ; preds = %43
  unreachable
}